; Function Attrs: mustprogress uwtable
define noundef i32 @_ZNK6casadi5Bilin10sp_forwardEPPKyPPyPxS4_(ptr nocapture noundef nonnull readonly align 8 dereferenceable(64) %0, ptr nocapture noundef readonly %1, ptr nocapture noundef readonly %2, ptr nocapture readnone %3, ptr nocapture readnone %4) unnamed_addr #3 align 2 {
  %6 = alloca %"struct.casadi::SparsityStruct", align 8
  %7 = getelementptr inbounds i8, ptr %0, i64 32
  %8 = getelementptr inbounds i8, ptr %0, i64 40
  %9 = load ptr, ptr %8, align 8
  %10 = load ptr, ptr %7, align 8
  %.not.i.i.i.not = icmp eq ptr %9, %10
  br i1 %.not.i.i.i.not, label %11, label %_ZNK6casadi6MXNode3depEx.exit

11:                                               ; preds = %5
  tail call void (ptr, ...) @_ZSt24__throw_out_of_range_fmtPKcz(ptr noundef nonnull @.str.15, i64 noundef 0, i64 noundef 0) #14
  unreachable

_ZNK6casadi6MXNode3depEx.exit:                    ; preds = %5
  %12 = tail call noundef nonnull align 8 dereferenceable(8) ptr @_ZNK6casadi2MX8sparsityEv(ptr noundef nonnull align 8 dereferenceable(8) %10)
  call void @_ZNK6casadi8SparsitycvNS_14SparsityStructEEv(ptr dead_on_unwind nonnull writable sret(%"struct.casadi::SparsityStruct") align 8 %6, ptr noundef nonnull align 8 dereferenceable(8) %12)
  %13 = getelementptr inbounds i8, ptr %6, i64 8
  %14 = load i64, ptr %13, align 8
  %15 = icmp sgt i64 %14, 0
  br i1 %15, label %.lr.ph23, label %._crit_edge

.lr.ph23:                                         ; preds = %_ZNK6casadi6MXNode3depEx.exit
  %16 = getelementptr inbounds i8, ptr %6, i64 16
  %17 = load ptr, ptr %16, align 8
  %18 = getelementptr inbounds i8, ptr %6, i64 24
  %19 = load ptr, ptr %18, align 8
  %20 = getelementptr inbounds i8, ptr %1, i64 8
  %21 = getelementptr inbounds i8, ptr %1, i64 16
  %.pre = load i64, ptr %17, align 8
  br label %22

.loopexit:                                        ; preds = %33, %22
  %.1.lcssa = phi i64 [ %.01622, %22 ], [ %42, %33 ]
  %exitcond25.not = icmp eq i64 %24, %14
  br i1 %exitcond25.not, label %._crit_edge, label %22, !llvm.loop !16

22:                                               ; preds = %.lr.ph23, %.loopexit
  %23 = phi i64 [ %.pre, %.lr.ph23 ], [ %26, %.loopexit ]
  %.01622 = phi i64 [ 0, %.lr.ph23 ], [ %.1.lcssa, %.loopexit ]
  %.01721 = phi i64 [ 0, %.lr.ph23 ], [ %24, %.loopexit ]
  %24 = add nuw nsw i64 %.01721, 1
  %25 = getelementptr inbounds i64, ptr %17, i64 %24
  %26 = load i64, ptr %25, align 8
  %27 = icmp slt i64 %23, %26
  br i1 %27, label %.lr.ph, label %.loopexit

.lr.ph:                                           ; preds = %22
  %28 = load ptr, ptr %20, align 8
  %29 = load ptr, ptr %1, align 8
  %30 = load ptr, ptr %21, align 8
  %31 = getelementptr inbounds i64, ptr %30, i64 %.01721
  %32 = load i64, ptr %31, align 8
  br label %33

33:                                               ; preds = %.lr.ph, %33
  %.019 = phi i64 [ %23, %.lr.ph ], [ %43, %33 ]
  %.118 = phi i64 [ %.01622, %.lr.ph ], [ %42, %33 ]
  %34 = getelementptr inbounds i64, ptr %19, i64 %.019
  %35 = load i64, ptr %34, align 8
  %36 = getelementptr inbounds i64, ptr %28, i64 %35
  %37 = load i64, ptr %36, align 8
  %38 = getelementptr inbounds i64, ptr %29, i64 %.019
  %39 = load i64, ptr %38, align 8
  %40 = or i64 %37, %.118
  %41 = or i64 %40, %39
  %42 = or i64 %41, %32
  %43 = add nsw i64 %.019, 1
  %exitcond.not = icmp eq i64 %43, %26
  br i1 %exitcond.not, label %.loopexit, label %33, !llvm.loop !17

._crit_edge:                                      ; preds = %.loopexit, %_ZNK6casadi6MXNode3depEx.exit
  %.016.lcssa = phi i64 [ 0, %_ZNK6casadi6MXNode3depEx.exit ], [ %.1.lcssa, %.loopexit ]
  %44 = load ptr, ptr %2, align 8
  store i64 %.016.lcssa, ptr %44, align 8
  ret i32 0
}